target datalayout = "e-m:e-p270:32:32-p271:32:32-p272:64:64-i64:64-i128:128-f80:128-n8:16:32:64-S128"
target triple = "x86_64-pc-linux-gnu"

%"struct.faiss::RangeSearchResult" = type { ptr, i64, ptr, ptr, ptr, i64 }

@_ZTVN5faiss17RangeSearchResultE = unnamed_addr constant { [5 x ptr] } { [5 x ptr] [ptr null, ptr @_ZTIN5faiss17RangeSearchResultE, ptr @_ZN5faiss17RangeSearchResult13do_allocationEv, ptr @_ZN5faiss17RangeSearchResultD1Ev, ptr @_ZN5faiss17RangeSearchResultD0Ev] }, align 8

; Function Attrs: mustprogress uwtable
define void @_ZN5faiss17RangeSearchResultC2Emb(ptr noundef nonnull align 8 dereferenceable(48) %0, i64 noundef %1, i1 noundef zeroext %2) unnamed_addr #0 align 2 {
  %4 = alloca ptr, align 8
  %5 = alloca i64, align 8
  %6 = alloca i8, align 1
  store ptr %0, ptr %4, align 8
  store i64 %1, ptr %5, align 8
  %7 = zext i1 %2 to i8
  store i8 %7, ptr %6, align 1
  %8 = load ptr, ptr %4, align 8
  store ptr getelementptr inbounds ({ [5 x ptr] }, ptr @_ZTVN5faiss17RangeSearchResultE, i32 0, i32 0, i32 2), ptr %8, align 8
  %9 = getelementptr inbounds %"struct.faiss::RangeSearchResult", ptr %8, i32 0, i32 1
  %10 = load i64, ptr %5, align 8
  store i64 %10, ptr %9, align 8
  %11 = load i8, ptr %6, align 1
  %12 = trunc i8 %11 to i1
  br i1 %12, label %13, label %27

13:                                               ; preds = %3
  %14 = load i64, ptr %5, align 8
  %15 = add i64 %14, 1
  %16 = call { i64, i1 } @llvm.umul.with.overflow.i64(i64 %15, i64 8)
  %17 = extractvalue { i64, i1 } %16, 1
  %18 = extractvalue { i64, i1 } %16, 0
  %19 = select i1 %17, i64 -1, i64 %18
  %20 = call noalias noundef nonnull ptr @_Znam(i64 noundef %19) #15
  %21 = getelementptr inbounds %"struct.faiss::RangeSearchResult", ptr %8, i32 0, i32 2
  store ptr %20, ptr %21, align 8
  %22 = getelementptr inbounds %"struct.faiss::RangeSearchResult", ptr %8, i32 0, i32 2
  %23 = load ptr, ptr %22, align 8
  %24 = load i64, ptr %5, align 8
  %25 = add i64 %24, 1
  %26 = mul i64 8, %25
  call void @llvm.memset.p0.i64(ptr align 8 %23, i8 0, i64 %26, i1 false)
  br label %29

27:                                               ; preds = %3
  %28 = getelementptr inbounds %"struct.faiss::RangeSearchResult", ptr %8, i32 0, i32 2
  store ptr null, ptr %28, align 8
  br label %29

29:                                               ; preds = %27, %13
  %30 = getelementptr inbounds %"struct.faiss::RangeSearchResult", ptr %8, i32 0, i32 3
  store ptr null, ptr %30, align 8
  %31 = getelementptr inbounds %"struct.faiss::RangeSearchResult", ptr %8, i32 0, i32 4
  store ptr null, ptr %31, align 8
  %32 = getelementptr inbounds %"struct.faiss::RangeSearchResult", ptr %8, i32 0, i32 5
  store i64 262144, ptr %32, align 8
  ret void
}