; Function Attrs: mustprogress uwtable
define void @_ZN5faiss17RangeSearchResultC2Emb(ptr nocapture noundef nonnull writeonly align 8 dereferenceable(48) %0, i64 noundef %1, i1 noundef zeroext %2) unnamed_addr #0 align 2 {
  store ptr getelementptr inbounds ({ [5 x ptr] }, ptr @_ZTVN5faiss17RangeSearchResultE, i64 0, i32 0, i64 2), ptr %0, align 8
  %4 = getelementptr inbounds i8, ptr %0, i64 8
  store i64 %1, ptr %4, align 8
  br i1 %2, label %5, label %11

5:                                                ; preds = %3
  %6 = add i64 %1, 1
  %7 = icmp ugt i64 %6, 2305843009213693951
  %8 = shl i64 %6, 3
  %9 = select i1 %7, i64 -1, i64 %8
  %10 = tail call noalias noundef nonnull ptr @_Znam(i64 noundef %9) #22
  tail call void @llvm.memset.p0.i64(ptr nonnull align 8 %10, i8 0, i64 %8, i1 false)
  br label %11

11:                                               ; preds = %3, %5
  %.sink = phi ptr [ %10, %5 ], [ null, %3 ]
  %12 = getelementptr inbounds i8, ptr %0, i64 16
  store ptr %.sink, ptr %12, align 8
  %13 = getelementptr inbounds i8, ptr %0, i64 24
  %14 = getelementptr inbounds i8, ptr %0, i64 40
  tail call void @llvm.memset.p0.i64(ptr noundef nonnull align 8 dereferenceable(16) %13, i8 0, i64 16, i1 false)
  store i64 262144, ptr %14, align 8
  ret void
}